; Function Attrs: mustprogress nounwind uwtable
define hidden void @_ZN8CodeBlobC2EPKc12CodeBlobKindP10CodeBufferitsiP9OopMapSetb(ptr nocapture noundef nonnull align 8 dereferenceable(54) %0, ptr noundef %1, i8 noundef zeroext %2, ptr noundef nonnull %3, i32 noundef %4, i16 noundef zeroext %5, i16 noundef signext %6, i32 noundef %7, ptr noundef %8, i1 noundef zeroext %9) unnamed_addr #1 align 2 {
  %11 = zext i1 %9 to i8
  store ptr getelementptr inbounds inrange(-16, 56) (i8, ptr @_ZTV8CodeBlob, i64 16), ptr %0, align 8
  %12 = getelementptr inbounds i8, ptr %0, i64 8
  store ptr null, ptr %12, align 8
  %13 = getelementptr inbounds i8, ptr %0, i64 16
  store ptr %1, ptr %13, align 8
  %14 = getelementptr inbounds i8, ptr %0, i64 24
  store i32 %4, ptr %14, align 8
  %15 = getelementptr inbounds i8, ptr %0, i64 28
  %16 = tail call noundef i32 @_ZNK10CodeBuffer21total_relocation_sizeEv(ptr noundef nonnull align 8 dereferenceable(448) %3) #10
  %17 = add i32 %16, 7
  %18 = and i32 %17, -8
  store i32 %18, ptr %15, align 4
  %19 = getelementptr inbounds i8, ptr %0, i64 32
  %20 = zext i16 %5 to i32
  %21 = load i64, ptr @CodeEntryAlignment, align 8
  %22 = trunc i64 %21 to i32
  %23 = add nuw nsw i32 %20, 7
  %24 = add i32 %23, %18
  %25 = add i32 %24, %22
  %26 = sub i32 0, %22
  %27 = and i32 %25, %26
  %28 = add nsw i32 %27, -8
  store i32 %28, ptr %19, align 8
  %29 = getelementptr inbounds i8, ptr %0, i64 36
  %30 = getelementptr inbounds i8, ptr %3, i64 96
  %31 = tail call noundef i32 @_ZNK10CodeBuffer15total_offset_ofEPK11CodeSection(ptr noundef nonnull align 8 dereferenceable(448) %3, ptr noundef nonnull %30) #10
  %32 = add nsw i32 %28, %31
  store i32 %32, ptr %29, align 4
  %33 = getelementptr inbounds i8, ptr %0, i64 40
  %34 = load i32, ptr %19, align 8
  %35 = tail call noundef i32 @_ZNK10CodeBuffer18total_content_sizeEv(ptr noundef nonnull align 8 dereferenceable(448) %3) #10
  %36 = add i32 %35, 7
  %37 = and i32 %36, -8
  %38 = add nsw i32 %37, %34
  store i32 %38, ptr %33, align 8
  %39 = getelementptr inbounds i8, ptr %0, i64 44
  store i32 %7, ptr %39, align 4
  %40 = getelementptr inbounds i8, ptr %0, i64 48
  store i16 %5, ptr %40, align 8
  %41 = getelementptr inbounds i8, ptr %0, i64 50
  store i16 %6, ptr %41, align 2
  %42 = getelementptr inbounds i8, ptr %0, i64 52
  store i8 %2, ptr %42, align 4
  %43 = getelementptr inbounds i8, ptr %0, i64 53
  store i8 %11, ptr %43, align 1
  %.not.i = icmp eq ptr %8, null
  br i1 %.not.i, label %_ZN8CodeBlob12set_oop_mapsEP9OopMapSet.exit, label %44

44:                                               ; preds = %10
  %45 = tail call noundef ptr @_ZN18ImmutableOopMapSet10build_fromEPK9OopMapSet(ptr noundef nonnull %8) #10
  br label %_ZN8CodeBlob12set_oop_mapsEP9OopMapSet.exit

_ZN8CodeBlob12set_oop_mapsEP9OopMapSet.exit:      ; preds = %10, %44
  %.sink.i = phi ptr [ %45, %44 ], [ null, %10 ]
  store ptr %.sink.i, ptr %12, align 8
  ret void
}